target datalayout = "e-m:e-p270:32:32-p271:32:32-p272:64:64-i64:64-i128:128-f80:128-n8:16:32:64-S128"
target triple = "x86_64-pc-linux-gnu"

; Function Attrs: nounwind uwtable
define internal void @rotate_faulty_loco(ptr noundef %0, i32 noundef %1, i32 noundef %2, i32 noundef %3) #1 {
  %5 = alloca ptr, align 8
  %6 = alloca i32, align 4
  %7 = alloca i32, align 4
  %8 = alloca i32, align 4
  %9 = alloca i32, align 4
  store ptr %0, ptr %5, align 8, !tbaa !48
  store i32 %1, ptr %6, align 4, !tbaa !36
  store i32 %2, ptr %7, align 4, !tbaa !36
  store i32 %3, ptr %8, align 4, !tbaa !36
  call void @llvm.lifetime.start.p0(i64 4, ptr %9) #9
  store i32 1, ptr %9, align 4, !tbaa !36
  br label %10

10:                                               ; preds = %63, %4
  %11 = load i32, ptr %9, align 4, !tbaa !36
  %12 = load i32, ptr %7, align 4, !tbaa !36
  %13 = icmp slt i32 %11, %12
  br i1 %13, label %14, label %66

14:                                               ; preds = %10
  %15 = load i32, ptr %6, align 4, !tbaa !36
  %16 = load i32, ptr %9, align 4, !tbaa !36
  %17 = icmp sge i32 %15, %16
  br i1 %17, label %18, label %62

18:                                               ; preds = %14
  %19 = load ptr, ptr %5, align 8, !tbaa !48
  %20 = load i32, ptr %9, align 4, !tbaa !36
  %21 = load i32, ptr %8, align 4, !tbaa !36
  %22 = mul nsw i32 %20, %21
  %23 = sext i32 %22 to i64
  %24 = getelementptr inbounds i8, ptr %19, i64 %23
  %25 = load ptr, ptr %5, align 8, !tbaa !48
  %26 = load i32, ptr %9, align 4, !tbaa !36
  %27 = load i32, ptr %8, align 4, !tbaa !36
  %28 = add nsw i32 %27, 1
  %29 = mul nsw i32 %26, %28
  %30 = sext i32 %29 to i64
  %31 = getelementptr inbounds i8, ptr %25, i64 %30
  %32 = load i32, ptr %6, align 4, !tbaa !36
  %33 = load i32, ptr %9, align 4, !tbaa !36
  %34 = sub nsw i32 %32, %33
  %35 = sext i32 %34 to i64
  call void @llvm.memmove.p0.p0.i64(ptr align 1 %24, ptr align 1 %31, i64 %35, i1 false)
  %36 = load i32, ptr %9, align 4, !tbaa !36
  %37 = add nsw i32 %36, 1
  %38 = load i32, ptr %7, align 4, !tbaa !36
  %39 = icmp slt i32 %37, %38
  br i1 %39, label %40, label %61

40:                                               ; preds = %18
  %41 = load ptr, ptr %5, align 8, !tbaa !48
  %42 = load i32, ptr %9, align 4, !tbaa !36
  %43 = load i32, ptr %8, align 4, !tbaa !36
  %44 = mul nsw i32 %42, %43
  %45 = sext i32 %44 to i64
  %46 = getelementptr inbounds i8, ptr %41, i64 %45
  %47 = load i32, ptr %6, align 4, !tbaa !36
  %48 = load i32, ptr %9, align 4, !tbaa !36
  %49 = sub nsw i32 %47, %48
  %50 = sext i32 %49 to i64
  %51 = getelementptr inbounds i8, ptr %46, i64 %50
  %52 = load ptr, ptr %5, align 8, !tbaa !48
  %53 = load i32, ptr %9, align 4, !tbaa !36
  %54 = add nsw i32 %53, 1
  %55 = load i32, ptr %8, align 4, !tbaa !36
  %56 = mul nsw i32 %54, %55
  %57 = sext i32 %56 to i64
  %58 = getelementptr inbounds i8, ptr %52, i64 %57
  %59 = load i32, ptr %9, align 4, !tbaa !36
  %60 = sext i32 %59 to i64
  call void @llvm.memmove.p0.p0.i64(ptr align 1 %51, ptr align 1 %58, i64 %60, i1 false)
  br label %61

61:                                               ; preds = %40, %18
  br label %62

62:                                               ; preds = %61, %14
  br label %63

63:                                               ; preds = %62
  %64 = load i32, ptr %9, align 4, !tbaa !36
  %65 = add nsw i32 %64, 1
  store i32 %65, ptr %9, align 4, !tbaa !36
  br label %10, !llvm.loop !64

66:                                               ; preds = %10
  call void @llvm.lifetime.end.p0(i64 4, ptr %9) #9
  ret void
}