; Function Attrs: nofree norecurse nosync nounwind memory(argmem: readwrite) uwtable
define internal fastcc void @rotate_faulty_loco(ptr noundef captures(none) %0, i32 noundef %1, i32 noundef %2, i32 noundef range(i32 -2147483647, -2147483648) %3) unnamed_addr #5 {
  %5 = icmp sgt i32 %2, 1
  br i1 %5, label %.lr.ph, label %._crit_edge

.lr.ph:                                           ; preds = %4
  %6 = add nsw i32 %3, 1
  %7 = sext i32 %3 to i64
  %8 = sext i32 %6 to i64
  %9 = sext i32 %1 to i64
  %10 = zext nneg i32 %2 to i64
  %wide.trip.count = zext nneg i32 %2 to i64
  br label %11

11:                                               ; preds = %.lr.ph, %24
  %indvars.iv = phi i64 [ 1, %.lr.ph ], [ %indvars.iv.next.pre-phi, %24 ]
  %.not = icmp sgt i64 %indvars.iv, %9
  br i1 %.not, label %._crit_edge28, label %12

._crit_edge28:                                    ; preds = %11
  %.pre = add nuw nsw i64 %indvars.iv, 1
  br label %24

12:                                               ; preds = %11
  %13 = mul nsw i64 %indvars.iv, %7
  %14 = getelementptr inbounds i8, ptr %0, i64 %13
  %15 = mul nsw i64 %indvars.iv, %8
  %16 = getelementptr inbounds i8, ptr %0, i64 %15
  %17 = sub nsw i64 %9, %indvars.iv
  tail call void @llvm.memmove.p0.p0.i64(ptr align 1 %14, ptr align 1 %16, i64 %17, i1 false)
  %18 = add nuw nsw i64 %indvars.iv, 1
  %19 = icmp slt i64 %18, %10
  br i1 %19, label %20, label %24

20:                                               ; preds = %12
  %21 = getelementptr inbounds i8, ptr %14, i64 %17
  %22 = mul nsw i64 %18, %7
  %23 = getelementptr inbounds i8, ptr %0, i64 %22
  tail call void @llvm.memmove.p0.p0.i64(ptr noundef nonnull align 1 dereferenceable(1) %21, ptr noundef nonnull align 1 dereferenceable(1) %23, i64 %indvars.iv, i1 false)
  br label %24

24:                                               ; preds = %._crit_edge28, %20, %12
  %indvars.iv.next.pre-phi = phi i64 [ %.pre, %._crit_edge28 ], [ %18, %20 ], [ %18, %12 ]
  %exitcond.not = icmp eq i64 %indvars.iv.next.pre-phi, %wide.trip.count
  br i1 %exitcond.not, label %._crit_edge, label %11, !llvm.loop !61

._crit_edge:                                      ; preds = %24, %4
  ret void
}